; ModuleID = '29/185.c'
source_filename = "29/185.c"
target datalayout = "e-m:e-p270:32:32-p271:32:32-p272:64:64-i64:64-f80:128-n8:16:32:64-S128"
target triple = "x86_64-pc-linux-gnu"

@.str = private unnamed_addr constant [3 x i8] c"%d\00", align 1
@.str.1 = private unnamed_addr constant [5 x i8] c"%.3f\00", align 1
@.str.2 = private unnamed_addr constant [6 x i8] c"\0A%.3f\00", align 1

; Function Attrs: noinline nounwind uwtable
define dso_local i32 @main() #0 {
  %1 = alloca i32, align 4
  %2 = alloca i32, align 4
  %3 = alloca i32, align 4
  %4 = alloca i32, align 4
  %5 = alloca float, align 4
  %6 = alloca i32, align 4
  %7 = alloca i32, align 4
  %8 = alloca i32, align 4
  %9 = alloca i32, align 4
  store i32 0, i32* %1, align 4
  store float 0.000000e+00, float* %5, align 4
  store i32 2, i32* %6, align 4
  store i32 1, i32* %7, align 4
  %10 = call i32 (i8*, ...) @__isoc99_scanf(i8* getelementptr inbounds ([3 x i8], [3 x i8]* @.str, i64 0, i64 0), i32* %2)
  %11 = call i32 (i8*, ...) @__isoc99_scanf(i8* getelementptr inbounds ([3 x i8], [3 x i8]* @.str, i64 0, i64 0), i32* %9)
  store i32 0, i32* %4, align 4
  br label %12

12:                                               ; preds = %29, %0
  %13 = load i32, i32* %4, align 4
  %14 = load i32, i32* %9, align 4
  %15 = icmp slt i32 %13, %14
  br i1 %15, label %16, label %32

16:                                               ; preds = %12
  %17 = load i32, i32* %6, align 4
  %18 = sitofp i32 %17 to float
  %19 = load i32, i32* %7, align 4
  %20 = sitofp i32 %19 to float
  %21 = fdiv float %18, %20
  %22 = load float, float* %5, align 4
  %23 = fadd float %22, %21
  store float %23, float* %5, align 4
  %24 = load i32, i32* %6, align 4
  store i32 %24, i32* %8, align 4
  %25 = load i32, i32* %6, align 4
  %26 = load i32, i32* %7, align 4
  %27 = add nsw i32 %25, %26
  store i32 %27, i32* %6, align 4
  %28 = load i32, i32* %8, align 4
  store i32 %28, i32* %7, align 4
  br label %29

29:                                               ; preds = %16
  %30 = load i32, i32* %4, align 4
  %31 = add nsw i32 %30, 1
  store i32 %31, i32* %4, align 4
  br label %12

32:                                               ; preds = %12
  %33 = load float, float* %5, align 4
  %34 = fpext float %33 to double
  %35 = call i32 (i8*, ...) @printf(i8* getelementptr inbounds ([5 x i8], [5 x i8]* @.str.1, i64 0, i64 0), double %34)
  store float 0.000000e+00, float* %5, align 4
  store i32 2, i32* %6, align 4
  store i32 1, i32* %7, align 4
  store i32 1, i32* %3, align 4
  br label %36

36:                                               ; preds = %66, %32
  %37 = load i32, i32* %3, align 4
  %38 = load i32, i32* %2, align 4
  %39 = icmp slt i32 %37, %38
  br i1 %39, label %40, label %69

40:                                               ; preds = %36
  %41 = call i32 (i8*, ...) @__isoc99_scanf(i8* getelementptr inbounds ([3 x i8], [3 x i8]* @.str, i64 0, i64 0), i32* %9)
  store i32 0, i32* %4, align 4
  br label %42

42:                                               ; preds = %59, %40
  %43 = load i32, i32* %4, align 4
  %44 = load i32, i32* %9, align 4
  %45 = icmp slt i32 %43, %44
  br i1 %45, label %46, label %62

46:                                               ; preds = %42
  %47 = load i32, i32* %6, align 4
  %48 = sitofp i32 %47 to float
  %49 = load i32, i32* %7, align 4
  %50 = sitofp i32 %49 to float
  %51 = fdiv float %48, %50
  %52 = load float, float* %5, align 4
  %53 = fadd float %52, %51
  store float %53, float* %5, align 4
  %54 = load i32, i32* %6, align 4
  store i32 %54, i32* %8, align 4
  %55 = load i32, i32* %6, align 4
  %56 = load i32, i32* %7, align 4
  %57 = add nsw i32 %55, %56
  store i32 %57, i32* %6, align 4
  %58 = load i32, i32* %8, align 4
  store i32 %58, i32* %7, align 4
  br label %59

59:                                               ; preds = %46
  %60 = load i32, i32* %4, align 4
  %61 = add nsw i32 %60, 1
  store i32 %61, i32* %4, align 4
  br label %42

62:                                               ; preds = %42
  %63 = load float, float* %5, align 4
  %64 = fpext float %63 to double
  %65 = call i32 (i8*, ...) @printf(i8* getelementptr inbounds ([6 x i8], [6 x i8]* @.str.2, i64 0, i64 0), double %64)
  store float 0.000000e+00, float* %5, align 4
  store i32 2, i32* %6, align 4
  store i32 1, i32* %7, align 4
  br label %66

66:                                               ; preds = %62
  %67 = load i32, i32* %3, align 4
  %68 = add nsw i32 %67, 1
  store i32 %68, i32* %3, align 4
  br label %36

69:                                               ; preds = %36
  ret i32 0
}

declare dso_local i32 @__isoc99_scanf(i8*, ...) #1

declare dso_local i32 @printf(i8*, ...) #1


!llvm.module.flags = !{!0}
!llvm.ident = !{!1}

!0 = !{i32 1, !"wchar_size", i32 4}
!1 = !{!"clang version 10.0.0-4ubuntu1 "}
